target datalayout = "e-m:e-p270:32:32-p271:32:32-p272:64:64-i64:64-i128:128-f80:128-n8:16:32:64-S128"
target triple = "x86_64-pc-linux-gnu"

@InterruptPending = external global i32, align 4
@MyLatch = external global ptr, align 8
@proc_exit_inprogress = external global i8, align 1
@QueryCancelPending = external global i32, align 4

; Function Attrs: nounwind uwtable
define dso_local void @StatementCancelHandler(i32 noundef %0) #0 {
  %2 = alloca i32, align 4
  store i32 %0, ptr %2, align 4
  %3 = load i8, ptr @proc_exit_inprogress, align 1, !range !4, !noundef !5
  %4 = trunc i8 %3 to i1
  br i1 %4, label %6, label %5

5:                                                ; preds = %1
  store volatile i32 1, ptr @InterruptPending, align 4
  store volatile i32 1, ptr @QueryCancelPending, align 4
  br label %6

6:                                                ; preds = %5, %1
  %7 = load ptr, ptr @MyLatch, align 8
  call void @SetLatch(ptr noundef %7)
  ret void
}