; Function Attrs: nounwind uwtable
define dso_local void @StatementCancelHandler(i32 %0) #0 {
  %2 = load i8, ptr @proc_exit_inprogress, align 1, !range !5, !noundef !6
  %3 = trunc nuw i8 %2 to i1
  br i1 %3, label %5, label %4

4:                                                ; preds = %1
  store volatile i32 1, ptr @InterruptPending, align 4
  store volatile i32 1, ptr @QueryCancelPending, align 4
  br label %5

5:                                                ; preds = %4, %1
  %6 = load ptr, ptr @MyLatch, align 8
  tail call void @SetLatch(ptr noundef %6) #22
  ret void
}